; Function Attrs: mustprogress nofree norecurse nosync nounwind willreturn memory(argmem: read) uwtable
define noundef i32 @_ZNK13DecodeAsModel11columnCountERK11QModelIndex(ptr nocapture noundef nonnull readnone align 8 dereferenceable(96) %0, ptr nocapture noundef nonnull readonly align 8 dereferenceable(24) %1) unnamed_addr #8 align 2 {
_ZNK11QModelIndex7isValidEv.exit.thread:
  %2 = load i32, ptr %1, align 8
  %3 = icmp sgt i32 %2, -1
  %4 = getelementptr inbounds i8, ptr %1, i64 4
  %5 = load i32, ptr %4, align 4
  %6 = icmp sgt i32 %5, -1
  %or.cond.i = select i1 %3, i1 %6, i1 false
  %7 = getelementptr inbounds i8, ptr %1, i64 16
  %8 = load ptr, ptr %7, align 8
  %.fr = freeze ptr %8
  %.not = icmp eq ptr %.fr, null
  %spec.select = select i1 %.not, i32 5, i32 0
  %9 = select i1 %or.cond.i, i32 %spec.select, i32 5
  ret i32 %9
}